; Function Attrs: null_pointer_is_valid sspstrong uwtable
define hidden void @radius_octets(ptr noundef readonly captures(none) %0, ptr noundef %1, ptr noundef readonly captures(none) %2, ptr noundef %3, i32 noundef %4, i32 noundef %5, ptr noundef %6) #0 {
  %8 = icmp eq i32 %5, 0
  br i1 %8, label %9, label %10

9:                                                ; preds = %7
  tail call void (ptr, ptr, ...) @proto_item_append_text(ptr noundef %6, ptr noundef nonnull @.str.9)
  br label %17

10:                                               ; preds = %7
  %11 = getelementptr inbounds nuw i8, ptr %0, i64 52
  %12 = load i32, ptr %11, align 4
  %13 = tail call ptr @proto_tree_add_item(ptr noundef %1, i32 noundef %12, ptr noundef %3, i32 noundef %4, i32 noundef %5, i32 noundef 0)
  %14 = getelementptr inbounds nuw i8, ptr %2, i64 408
  %15 = load ptr, ptr %14, align 8
  %16 = tail call ptr @tvb_bytes_to_str(ptr noundef %15, ptr noundef %3, i32 noundef %4, i32 noundef %5)
  tail call void (ptr, ptr, ...) @proto_item_append_text(ptr noundef %6, ptr noundef nonnull @.str.8, ptr noundef %16)
  br label %17

17:                                               ; preds = %10, %9
  ret void
}